target datalayout = "e-m:e-p270:32:32-p271:32:32-p272:64:64-i64:64-i128:128-f80:128-n8:16:32:64-S128"
target triple = "x86_64-pc-linux-gnu"

%"class.pxrInternal_v0_24__pxrReserved__::GfInterval" = type { %"struct.pxrInternal_v0_24__pxrReserved__::GfInterval::_Bound", %"struct.pxrInternal_v0_24__pxrReserved__::GfInterval::_Bound" }
%"struct.pxrInternal_v0_24__pxrReserved__::GfInterval::_Bound" = type <{ double, i8, [7 x i8] }>

; Function Attrs: mustprogress uwtable
define internal noundef double @_ZN32pxrInternal_v0_24__pxrReserved__L23_SolveCubic_RegulaFalsiEPKddRKNS_10GfIntervalE(ptr noundef %0, double noundef %1, ptr noundef nonnull align 8 dereferenceable(32) %2) #3 {
  %4 = alloca double, align 8
  %5 = alloca ptr, align 8
  %6 = alloca double, align 8
  %7 = alloca ptr, align 8
  %8 = alloca double, align 8
  %9 = alloca double, align 8
  %10 = alloca double, align 8
  %11 = alloca double, align 8
  %12 = alloca double, align 8
  %13 = alloca double, align 8
  %14 = alloca i32, align 4
  store ptr %0, ptr %5, align 8
  store double %1, ptr %6, align 8
  store ptr %2, ptr %7, align 8
  %15 = load ptr, ptr %7, align 8
  %16 = call noundef double @_ZNK32pxrInternal_v0_24__pxrReserved__10GfInterval6GetMinEv(ptr noundef nonnull align 8 dereferenceable(32) %15)
  store double %16, ptr %8, align 8
  %17 = load ptr, ptr %7, align 8
  %18 = call noundef double @_ZNK32pxrInternal_v0_24__pxrReserved__10GfInterval6GetMaxEv(ptr noundef nonnull align 8 dereferenceable(32) %17)
  store double %18, ptr %9, align 8
  %19 = load ptr, ptr %5, align 8
  %20 = load double, ptr %8, align 8
  %21 = call noundef double @_ZN32pxrInternal_v0_24__pxrReserved__12Ts_EvalCubicIdEET_PKS1_d(ptr noundef %19, double noundef %20)
  %22 = load double, ptr %6, align 8
  %23 = fsub double %21, %22
  store double %23, ptr %10, align 8
  %24 = load ptr, ptr %5, align 8
  %25 = load double, ptr %9, align 8
  %26 = call noundef double @_ZN32pxrInternal_v0_24__pxrReserved__12Ts_EvalCubicIdEET_PKS1_d(ptr noundef %24, double noundef %25)
  %27 = load double, ptr %6, align 8
  %28 = fsub double %26, %27
  store double %28, ptr %11, align 8
  %29 = load double, ptr %10, align 8
  %30 = call double @llvm.fabs.f64(double %29)
  %31 = fcmp olt double %30, 1.000000e-04
  br i1 %31, label %32, label %34

32:                                               ; preds = %3
  %33 = load double, ptr %8, align 8
  store double %33, ptr %4, align 8
  br label %88

34:                                               ; preds = %3
  %35 = load double, ptr %11, align 8
  %36 = call double @llvm.fabs.f64(double %35)
  %37 = fcmp olt double %36, 1.000000e-04
  br i1 %37, label %38, label %40

38:                                               ; preds = %34
  %39 = load double, ptr %9, align 8
  store double %39, ptr %4, align 8
  br label %88

40:                                               ; preds = %34
  %41 = load double, ptr %10, align 8
  %42 = load double, ptr %11, align 8
  %43 = fmul double %41, %42
  %44 = fcmp ogt double %43, 0.000000e+00
  br i1 %44, label %45, label %46

45:                                               ; preds = %40
  store double -1.000000e+00, ptr %4, align 8
  br label %88

46:                                               ; preds = %40
  store i32 0, ptr %14, align 4
  br label %47

47:                                               ; preds = %83, %46
  %48 = load i32, ptr %14, align 4
  %49 = icmp slt i32 %48, 20
  br i1 %49, label %50, label %86

50:                                               ; preds = %47
  %51 = load double, ptr %8, align 8
  %52 = load double, ptr %10, align 8
  %53 = load double, ptr %9, align 8
  %54 = load double, ptr %8, align 8
  %55 = fsub double %53, %54
  %56 = fmul double %52, %55
  %57 = load double, ptr %11, align 8
  %58 = load double, ptr %10, align 8
  %59 = fsub double %57, %58
  %60 = fdiv double %56, %59
  %61 = fsub double %51, %60
  store double %61, ptr %12, align 8
  %62 = load ptr, ptr %5, align 8
  %63 = load double, ptr %12, align 8
  %64 = call noundef double @_ZN32pxrInternal_v0_24__pxrReserved__12Ts_EvalCubicIdEET_PKS1_d(ptr noundef %62, double noundef %63)
  %65 = load double, ptr %6, align 8
  %66 = fsub double %64, %65
  store double %66, ptr %13, align 8
  %67 = load double, ptr %13, align 8
  %68 = call double @llvm.fabs.f64(double %67)
  %69 = fcmp olt double %68, 0x3EB0C6F7A0B5ED8D
  br i1 %69, label %70, label %71

70:                                               ; preds = %50
  br label %86

71:                                               ; preds = %50
  %72 = load double, ptr %10, align 8
  %73 = load double, ptr %13, align 8
  %74 = fmul double %72, %73
  %75 = fcmp ole double %74, 0.000000e+00
  br i1 %75, label %76, label %79

76:                                               ; preds = %71
  %77 = load double, ptr %13, align 8
  store double %77, ptr %11, align 8
  %78 = load double, ptr %12, align 8
  store double %78, ptr %9, align 8
  br label %82

79:                                               ; preds = %71
  %80 = load double, ptr %13, align 8
  store double %80, ptr %10, align 8
  %81 = load double, ptr %12, align 8
  store double %81, ptr %8, align 8
  br label %82

82:                                               ; preds = %79, %76
  br label %83

83:                                               ; preds = %82
  %84 = load i32, ptr %14, align 4
  %85 = add nsw i32 %84, 1
  store i32 %85, ptr %14, align 4
  br label %47, !llvm.loop !6

86:                                               ; preds = %70, %47
  %87 = load double, ptr %12, align 8
  store double %87, ptr %4, align 8
  br label %88

88:                                               ; preds = %86, %45, %38, %32
  %89 = load double, ptr %4, align 8
  ret double %89
}

; Function Attrs: mustprogress nounwind uwtable
define linkonce_odr noundef zeroext i1 @_ZNK32pxrInternal_v0_24__pxrReserved__10GfInterval8ContainsEd(ptr noundef nonnull align 8 dereferenceable(32) %0, double noundef %1) #0 comdat align 2 {
  %3 = alloca ptr, align 8
  %4 = alloca double, align 8
  store ptr %0, ptr %3, align 8
  store double %1, ptr %4, align 8
  %5 = load ptr, ptr %3, align 8
  %6 = load double, ptr %4, align 8
  %7 = getelementptr inbounds nuw %"class.pxrInternal_v0_24__pxrReserved__::GfInterval", ptr %5, i32 0, i32 0
  %8 = getelementptr inbounds nuw %"struct.pxrInternal_v0_24__pxrReserved__::GfInterval::_Bound", ptr %7, i32 0, i32 0
  %9 = load double, ptr %8, align 8
  %10 = fcmp ogt double %6, %9
  br i1 %10, label %22, label %11

11:                                               ; preds = %2
  %12 = load double, ptr %4, align 8
  %13 = getelementptr inbounds nuw %"class.pxrInternal_v0_24__pxrReserved__::GfInterval", ptr %5, i32 0, i32 0
  %14 = getelementptr inbounds nuw %"struct.pxrInternal_v0_24__pxrReserved__::GfInterval::_Bound", ptr %13, i32 0, i32 0
  %15 = load double, ptr %14, align 8
  %16 = fcmp oeq double %12, %15
  br i1 %16, label %17, label %43

17:                                               ; preds = %11
  %18 = getelementptr inbounds nuw %"class.pxrInternal_v0_24__pxrReserved__::GfInterval", ptr %5, i32 0, i32 0
  %19 = getelementptr inbounds nuw %"struct.pxrInternal_v0_24__pxrReserved__::GfInterval::_Bound", ptr %18, i32 0, i32 1
  %20 = load i8, ptr %19, align 8
  %21 = trunc i8 %20 to i1
  br i1 %21, label %22, label %43

22:                                               ; preds = %17, %2
  %23 = load double, ptr %4, align 8
  %24 = getelementptr inbounds nuw %"class.pxrInternal_v0_24__pxrReserved__::GfInterval", ptr %5, i32 0, i32 1
  %25 = getelementptr inbounds nuw %"struct.pxrInternal_v0_24__pxrReserved__::GfInterval::_Bound", ptr %24, i32 0, i32 0
  %26 = load double, ptr %25, align 8
  %27 = fcmp olt double %23, %26
  br i1 %27, label %41, label %28

28:                                               ; preds = %22
  %29 = load double, ptr %4, align 8
  %30 = getelementptr inbounds nuw %"class.pxrInternal_v0_24__pxrReserved__::GfInterval", ptr %5, i32 0, i32 1
  %31 = getelementptr inbounds nuw %"struct.pxrInternal_v0_24__pxrReserved__::GfInterval::_Bound", ptr %30, i32 0, i32 0
  %32 = load double, ptr %31, align 8
  %33 = fcmp oeq double %29, %32
  br i1 %33, label %34, label %39

34:                                               ; preds = %28
  %35 = getelementptr inbounds nuw %"class.pxrInternal_v0_24__pxrReserved__::GfInterval", ptr %5, i32 0, i32 1
  %36 = getelementptr inbounds nuw %"struct.pxrInternal_v0_24__pxrReserved__::GfInterval::_Bound", ptr %35, i32 0, i32 1
  %37 = load i8, ptr %36, align 8
  %38 = trunc i8 %37 to i1
  br label %39

39:                                               ; preds = %34, %28
  %40 = phi i1 [ false, %28 ], [ %38, %34 ]
  br label %41

41:                                               ; preds = %39, %22
  %42 = phi i1 [ true, %22 ], [ %40, %39 ]
  br label %43

43:                                               ; preds = %41, %17, %11
  %44 = phi i1 [ false, %17 ], [ false, %11 ], [ %42, %41 ]
  ret i1 %44
}

; Function Attrs: mustprogress nounwind uwtable
define linkonce_odr noundef double @_ZN32pxrInternal_v0_24__pxrReserved__16Ts_EvalQuadraticIdEET_PKS1_d(ptr noundef %0, double noundef %1) #0 comdat {
  %3 = alloca ptr, align 8
  %4 = alloca double, align 8
  store ptr %0, ptr %3, align 8
  store double %1, ptr %4, align 8
  %5 = load double, ptr %4, align 8
  %6 = load double, ptr %4, align 8
  %7 = load ptr, ptr %3, align 8
  %8 = getelementptr inbounds double, ptr %7, i64 2
  %9 = load double, ptr %8, align 8
  %10 = load ptr, ptr %3, align 8
  %11 = getelementptr inbounds double, ptr %10, i64 1
  %12 = load double, ptr %11, align 8
  %13 = call double @llvm.fmuladd.f64(double %6, double %9, double %12)
  %14 = load ptr, ptr %3, align 8
  %15 = getelementptr inbounds double, ptr %14, i64 0
  %16 = load double, ptr %15, align 8
  %17 = call double @llvm.fmuladd.f64(double %5, double %13, double %16)
  ret double %17
}

; Function Attrs: mustprogress nounwind uwtable
define linkonce_odr noundef double @_ZN32pxrInternal_v0_24__pxrReserved__12Ts_EvalCubicIdEET_PKS1_d(ptr noundef %0, double noundef %1) #0 comdat {
  %3 = alloca ptr, align 8
  %4 = alloca double, align 8
  store ptr %0, ptr %3, align 8
  store double %1, ptr %4, align 8
  %5 = load double, ptr %4, align 8
  %6 = load double, ptr %4, align 8
  %7 = load double, ptr %4, align 8
  %8 = load ptr, ptr %3, align 8
  %9 = getelementptr inbounds double, ptr %8, i64 3
  %10 = load double, ptr %9, align 8
  %11 = load ptr, ptr %3, align 8
  %12 = getelementptr inbounds double, ptr %11, i64 2
  %13 = load double, ptr %12, align 8
  %14 = call double @llvm.fmuladd.f64(double %7, double %10, double %13)
  %15 = load ptr, ptr %3, align 8
  %16 = getelementptr inbounds double, ptr %15, i64 1
  %17 = load double, ptr %16, align 8
  %18 = call double @llvm.fmuladd.f64(double %6, double %14, double %17)
  %19 = load ptr, ptr %3, align 8
  %20 = getelementptr inbounds double, ptr %19, i64 0
  %21 = load double, ptr %20, align 8
  %22 = call double @llvm.fmuladd.f64(double %5, double %18, double %21)
  ret double %22
}

; Function Attrs: mustprogress nounwind uwtable
define linkonce_odr noundef double @_ZNK32pxrInternal_v0_24__pxrReserved__10GfInterval6GetMaxEv(ptr noundef nonnull align 8 dereferenceable(32) %0) #0 comdat align 2 {
  %2 = alloca ptr, align 8
  store ptr %0, ptr %2, align 8
  %3 = load ptr, ptr %2, align 8
  %4 = getelementptr inbounds nuw %"class.pxrInternal_v0_24__pxrReserved__::GfInterval", ptr %3, i32 0, i32 1
  %5 = getelementptr inbounds nuw %"struct.pxrInternal_v0_24__pxrReserved__::GfInterval::_Bound", ptr %4, i32 0, i32 0
  %6 = load double, ptr %5, align 8
  ret double %6
}

; Function Attrs: mustprogress nounwind uwtable
define linkonce_odr noundef double @_ZNK32pxrInternal_v0_24__pxrReserved__10GfInterval6GetMinEv(ptr noundef nonnull align 8 dereferenceable(32) %0) #0 comdat align 2 {
  %2 = alloca ptr, align 8
  store ptr %0, ptr %2, align 8
  %3 = load ptr, ptr %2, align 8
  %4 = getelementptr inbounds nuw %"class.pxrInternal_v0_24__pxrReserved__::GfInterval", ptr %3, i32 0, i32 0
  %5 = getelementptr inbounds nuw %"struct.pxrInternal_v0_24__pxrReserved__::GfInterval::_Bound", ptr %4, i32 0, i32 0
  %6 = load double, ptr %5, align 8
  ret double %6
}

; Function Attrs: mustprogress uwtable
define noundef double @_ZN32pxrInternal_v0_24__pxrReserved__23Ts_SolveCubicInIntervalEPKdS1_dRKNS_10GfIntervalE(ptr noundef %0, ptr noundef %1, double noundef %2, ptr noundef nonnull align 8 dereferenceable(32) %3) #3 {
  %5 = alloca double, align 8
  %6 = alloca ptr, align 8
  %7 = alloca ptr, align 8
  %8 = alloca double, align 8
  %9 = alloca ptr, align 8
  %10 = alloca double, align 8
  %11 = alloca i32, align 4
  %12 = alloca double, align 8
  store ptr %0, ptr %6, align 8
  store ptr %1, ptr %7, align 8
  store double %2, ptr %8, align 8
  store ptr %3, ptr %9, align 8
  %13 = load ptr, ptr %9, align 8
  %14 = call noundef double @_ZNK32pxrInternal_v0_24__pxrReserved__10GfInterval6GetMinEv(ptr noundef nonnull align 8 dereferenceable(32) %13)
  %15 = load ptr, ptr %9, align 8
  %16 = call noundef double @_ZNK32pxrInternal_v0_24__pxrReserved__10GfInterval6GetMaxEv(ptr noundef nonnull align 8 dereferenceable(32) %15)
  %17 = fadd double %14, %16
  %18 = fmul double %17, 5.000000e-01
  store double %18, ptr %10, align 8
  store i32 0, ptr %11, align 4
  br label %19

19:                                               ; preds = %49, %4
  %20 = load i32, ptr %11, align 4
  %21 = icmp slt i32 %20, 20
  br i1 %21, label %22, label %52

22:                                               ; preds = %19
  %23 = load ptr, ptr %6, align 8
  %24 = load double, ptr %10, align 8
  %25 = call noundef double @_ZN32pxrInternal_v0_24__pxrReserved__12Ts_EvalCubicIdEET_PKS1_d(ptr noundef %23, double noundef %24)
  %26 = load double, ptr %8, align 8
  %27 = fsub double %25, %26
  %28 = load ptr, ptr %7, align 8
  %29 = load double, ptr %10, align 8
  %30 = call noundef double @_ZN32pxrInternal_v0_24__pxrReserved__16Ts_EvalQuadraticIdEET_PKS1_d(ptr noundef %28, double noundef %29)
  %31 = fdiv double %27, %30
  store double %31, ptr %12, align 8
  %32 = load double, ptr %12, align 8
  %33 = load double, ptr %10, align 8
  %34 = fsub double %33, %32
  store double %34, ptr %10, align 8
  %35 = load ptr, ptr %9, align 8
  %36 = load double, ptr %10, align 8
  %37 = call noundef zeroext i1 @_ZNK32pxrInternal_v0_24__pxrReserved__10GfInterval8ContainsEd(ptr noundef nonnull align 8 dereferenceable(32) %35, double noundef %36)
  br i1 %37, label %43, label %38

38:                                               ; preds = %22
  %39 = load ptr, ptr %6, align 8
  %40 = load double, ptr %8, align 8
  %41 = load ptr, ptr %9, align 8
  %42 = call noundef double @_ZN32pxrInternal_v0_24__pxrReserved__L23_SolveCubic_RegulaFalsiEPKddRKNS_10GfIntervalE(ptr noundef %39, double noundef %40, ptr noundef nonnull align 8 dereferenceable(32) %41)
  store double %42, ptr %5, align 8
  br label %54

43:                                               ; preds = %22
  %44 = load double, ptr %12, align 8
  %45 = call double @llvm.fabs.f64(double %44)
  %46 = fcmp olt double %45, 1.000000e-05
  br i1 %46, label %47, label %48

47:                                               ; preds = %43
  br label %52

48:                                               ; preds = %43
  br label %49

49:                                               ; preds = %48
  %50 = load i32, ptr %11, align 4
  %51 = add nsw i32 %50, 1
  store i32 %51, ptr %11, align 4
  br label %19, !llvm.loop !4

52:                                               ; preds = %47, %19
  %53 = load double, ptr %10, align 8
  store double %53, ptr %5, align 8
  br label %54

54:                                               ; preds = %52, %38
  %55 = load double, ptr %5, align 8
  ret double %55
}