; Function Attrs: mustprogress nofree norecurse nosync nounwind willreturn memory(argmem: read) uwtable
define noundef double @_ZN32pxrInternal_v0_24__pxrReserved__23Ts_SolveCubicInIntervalEPKdS1_dRKNS_10GfIntervalE(ptr noundef readonly captures(none) %0, ptr noundef readonly captures(none) %1, double noundef %2, ptr noundef nonnull readonly align 8 captures(none) dereferenceable(32) %3) local_unnamed_addr #2 {
  %5 = load double, ptr %3, align 8
  %6 = getelementptr inbounds nuw i8, ptr %3, i64 16
  %7 = load double, ptr %6, align 8
  %8 = fadd double %5, %7
  %9 = fmul double %8, 5.000000e-01
  %10 = getelementptr inbounds nuw i8, ptr %0, i64 24
  %11 = load double, ptr %10, align 8
  %12 = getelementptr inbounds nuw i8, ptr %0, i64 16
  %13 = load double, ptr %12, align 8
  %14 = getelementptr inbounds nuw i8, ptr %0, i64 8
  %15 = load double, ptr %14, align 8
  %16 = load double, ptr %0, align 8
  %17 = getelementptr inbounds nuw i8, ptr %1, i64 16
  %18 = load double, ptr %17, align 8
  %19 = getelementptr inbounds nuw i8, ptr %1, i64 8
  %20 = load double, ptr %19, align 8
  %21 = load double, ptr %1, align 8
  %22 = getelementptr inbounds nuw i8, ptr %3, i64 8
  %23 = load i8, ptr %22, align 8
  %.fr58 = freeze i8 %23
  %24 = trunc i8 %.fr58 to i1
  %25 = getelementptr inbounds nuw i8, ptr %3, i64 24
  %26 = load i8, ptr %25, align 8
  %.fr = freeze i8 %26
  %27 = trunc i8 %.fr to i1
  br i1 %24, label %.split.us, label %.split

.split.us:                                        ; preds = %4, %_ZNK32pxrInternal_v0_24__pxrReserved__10GfInterval8ContainsEd.exit.thread21.us
  %.01828.us = phi i32 [ %41, %_ZNK32pxrInternal_v0_24__pxrReserved__10GfInterval8ContainsEd.exit.thread21.us ], [ 0, %4 ]
  %.01927.us = phi double [ %35, %_ZNK32pxrInternal_v0_24__pxrReserved__10GfInterval8ContainsEd.exit.thread21.us ], [ %9, %4 ]
  %28 = tail call double @llvm.fmuladd.f64(double %.01927.us, double %11, double %13)
  %29 = tail call double @llvm.fmuladd.f64(double %.01927.us, double %28, double %15)
  %30 = tail call noundef double @llvm.fmuladd.f64(double %.01927.us, double %29, double %16)
  %31 = fsub double %30, %2
  %32 = tail call double @llvm.fmuladd.f64(double %.01927.us, double %18, double %20)
  %33 = tail call noundef double @llvm.fmuladd.f64(double %.01927.us, double %32, double %21)
  %34 = fdiv double %31, %33
  %35 = fsub double %.01927.us, %34
  %or.cond55 = fcmp ult double %35, %5
  br i1 %or.cond55, label %_ZNK32pxrInternal_v0_24__pxrReserved__10GfInterval8ContainsEd.exit.thread, label %36

36:                                               ; preds = %.split.us
  %37 = fcmp olt double %35, %7
  %38 = fcmp oeq double %35, %7
  %brmerge.not = and i1 %38, %27
  %or.cond82 = or i1 %37, %brmerge.not
  br i1 %or.cond82, label %_ZNK32pxrInternal_v0_24__pxrReserved__10GfInterval8ContainsEd.exit.thread21.us, label %_ZNK32pxrInternal_v0_24__pxrReserved__10GfInterval8ContainsEd.exit.thread

_ZNK32pxrInternal_v0_24__pxrReserved__10GfInterval8ContainsEd.exit.thread21.us: ; preds = %36
  %39 = tail call double @llvm.fabs.f64(double %34)
  %40 = fcmp uge double %39, 1.000000e-05
  %41 = add nuw nsw i32 %.01828.us, 1
  %42 = icmp samesign ult i32 %.01828.us, 19
  %or.cond = select i1 %40, i1 %42, i1 false
  br i1 %or.cond, label %.split.us, label %_ZN32pxrInternal_v0_24__pxrReserved__L23_SolveCubic_RegulaFalsiEPKddRKNS_10GfIntervalE.exit, !llvm.loop !4

.split:                                           ; preds = %4
  br i1 %27, label %.split.split.us, label %.split.split

.split.split.us:                                  ; preds = %.split, %_ZNK32pxrInternal_v0_24__pxrReserved__10GfInterval8ContainsEd.exit.thread21.us39
  %.01828.us36 = phi i32 [ %54, %_ZNK32pxrInternal_v0_24__pxrReserved__10GfInterval8ContainsEd.exit.thread21.us39 ], [ 0, %.split ]
  %.01927.us37 = phi double [ %50, %_ZNK32pxrInternal_v0_24__pxrReserved__10GfInterval8ContainsEd.exit.thread21.us39 ], [ %9, %.split ]
  %43 = tail call double @llvm.fmuladd.f64(double %.01927.us37, double %11, double %13)
  %44 = tail call double @llvm.fmuladd.f64(double %.01927.us37, double %43, double %15)
  %45 = tail call noundef double @llvm.fmuladd.f64(double %.01927.us37, double %44, double %16)
  %46 = fsub double %45, %2
  %47 = tail call double @llvm.fmuladd.f64(double %.01927.us37, double %18, double %20)
  %48 = tail call noundef double @llvm.fmuladd.f64(double %.01927.us37, double %47, double %21)
  %49 = fdiv double %46, %48
  %50 = fsub double %.01927.us37, %49
  %51 = fcmp ule double %50, %5
  %or.cond57 = fcmp ugt double %50, %7
  %or.cond83 = select i1 %51, i1 true, i1 %or.cond57
  br i1 %or.cond83, label %_ZNK32pxrInternal_v0_24__pxrReserved__10GfInterval8ContainsEd.exit.thread, label %_ZNK32pxrInternal_v0_24__pxrReserved__10GfInterval8ContainsEd.exit.thread21.us39

_ZNK32pxrInternal_v0_24__pxrReserved__10GfInterval8ContainsEd.exit.thread21.us39: ; preds = %.split.split.us
  %52 = tail call double @llvm.fabs.f64(double %49)
  %53 = fcmp uge double %52, 1.000000e-05
  %54 = add nuw nsw i32 %.01828.us36, 1
  %55 = icmp samesign ult i32 %.01828.us36, 19
  %or.cond53 = select i1 %53, i1 %55, i1 false
  br i1 %or.cond53, label %.split.split.us, label %_ZN32pxrInternal_v0_24__pxrReserved__L23_SolveCubic_RegulaFalsiEPKddRKNS_10GfIntervalE.exit, !llvm.loop !4

.split.split:                                     ; preds = %.split, %_ZNK32pxrInternal_v0_24__pxrReserved__10GfInterval8ContainsEd.exit.thread21
  %.01828 = phi i32 [ %99, %_ZNK32pxrInternal_v0_24__pxrReserved__10GfInterval8ContainsEd.exit.thread21 ], [ 0, %.split ]
  %.01927 = phi double [ %63, %_ZNK32pxrInternal_v0_24__pxrReserved__10GfInterval8ContainsEd.exit.thread21 ], [ %9, %.split ]
  %56 = tail call double @llvm.fmuladd.f64(double %.01927, double %11, double %13)
  %57 = tail call double @llvm.fmuladd.f64(double %.01927, double %56, double %15)
  %58 = tail call noundef double @llvm.fmuladd.f64(double %.01927, double %57, double %16)
  %59 = fsub double %58, %2
  %60 = tail call double @llvm.fmuladd.f64(double %.01927, double %18, double %20)
  %61 = tail call noundef double @llvm.fmuladd.f64(double %.01927, double %60, double %21)
  %62 = fdiv double %59, %61
  %63 = fsub double %.01927, %62
  %64 = fcmp ogt double %63, %5
  %65 = fcmp olt double %63, %7
  %or.cond84 = select i1 %64, i1 %65, i1 false
  br i1 %or.cond84, label %_ZNK32pxrInternal_v0_24__pxrReserved__10GfInterval8ContainsEd.exit.thread21, label %_ZNK32pxrInternal_v0_24__pxrReserved__10GfInterval8ContainsEd.exit.thread

_ZNK32pxrInternal_v0_24__pxrReserved__10GfInterval8ContainsEd.exit.thread: ; preds = %.split.split, %.split.split.us, %.split.us, %36
  %66 = tail call double @llvm.fmuladd.f64(double %5, double %11, double %13)
  %67 = tail call double @llvm.fmuladd.f64(double %5, double %66, double %15)
  %68 = tail call noundef double @llvm.fmuladd.f64(double %5, double %67, double %16)
  %69 = fsub double %68, %2
  %70 = tail call double @llvm.fmuladd.f64(double %7, double %11, double %13)
  %71 = tail call double @llvm.fmuladd.f64(double %7, double %70, double %15)
  %72 = tail call noundef double @llvm.fmuladd.f64(double %7, double %71, double %16)
  %73 = fsub double %72, %2
  %74 = tail call double @llvm.fabs.f64(double %69)
  %75 = fcmp olt double %74, 1.000000e-04
  br i1 %75, label %_ZN32pxrInternal_v0_24__pxrReserved__L23_SolveCubic_RegulaFalsiEPKddRKNS_10GfIntervalE.exit, label %76

76:                                               ; preds = %_ZNK32pxrInternal_v0_24__pxrReserved__10GfInterval8ContainsEd.exit.thread
  %77 = tail call double @llvm.fabs.f64(double %73)
  %78 = fcmp olt double %77, 1.000000e-04
  br i1 %78, label %_ZN32pxrInternal_v0_24__pxrReserved__L23_SolveCubic_RegulaFalsiEPKddRKNS_10GfIntervalE.exit, label %79

79:                                               ; preds = %76
  %80 = fmul double %69, %73
  %81 = fcmp ogt double %80, 0.000000e+00
  br i1 %81, label %_ZN32pxrInternal_v0_24__pxrReserved__L23_SolveCubic_RegulaFalsiEPKddRKNS_10GfIntervalE.exit, label %.preheader.i

.preheader.i:                                     ; preds = %79, %93
  %.05.i = phi i32 [ %96, %93 ], [ 0, %79 ]
  %.0354.i = phi double [ %.035..i, %93 ], [ %73, %79 ]
  %.0373.i = phi double [ %..037.i, %93 ], [ %69, %79 ]
  %.0392.i = phi double [ %.039..i, %93 ], [ %7, %79 ]
  %.0411.i = phi double [ %..041.i, %93 ], [ %5, %79 ]
  %82 = fsub double %.0392.i, %.0411.i
  %83 = fmul double %.0373.i, %82
  %84 = fsub double %.0354.i, %.0373.i
  %85 = fdiv double %83, %84
  %86 = fsub double %.0411.i, %85
  %87 = tail call double @llvm.fmuladd.f64(double %86, double %11, double %13)
  %88 = tail call double @llvm.fmuladd.f64(double %86, double %87, double %15)
  %89 = tail call noundef double @llvm.fmuladd.f64(double %86, double %88, double %16)
  %90 = fsub double %89, %2
  %91 = tail call double @llvm.fabs.f64(double %90)
  %92 = fcmp olt double %91, 0x3EB0C6F7A0B5ED8D
  br i1 %92, label %_ZN32pxrInternal_v0_24__pxrReserved__L23_SolveCubic_RegulaFalsiEPKddRKNS_10GfIntervalE.exit, label %93

93:                                               ; preds = %.preheader.i
  %94 = fmul double %.0373.i, %90
  %95 = fcmp ugt double %94, 0.000000e+00
  %..041.i = select i1 %95, double %86, double %.0411.i
  %.039..i = select i1 %95, double %.0392.i, double %86
  %..037.i = select i1 %95, double %90, double %.0373.i
  %.035..i = select i1 %95, double %.0354.i, double %90
  %96 = add nuw nsw i32 %.05.i, 1
  %exitcond.not.i = icmp eq i32 %96, 20
  br i1 %exitcond.not.i, label %_ZN32pxrInternal_v0_24__pxrReserved__L23_SolveCubic_RegulaFalsiEPKddRKNS_10GfIntervalE.exit, label %.preheader.i, !llvm.loop !6

_ZNK32pxrInternal_v0_24__pxrReserved__10GfInterval8ContainsEd.exit.thread21: ; preds = %.split.split
  %97 = tail call double @llvm.fabs.f64(double %62)
  %98 = fcmp uge double %97, 1.000000e-05
  %99 = add nuw nsw i32 %.01828, 1
  %100 = icmp samesign ult i32 %.01828, 19
  %or.cond54 = select i1 %98, i1 %100, i1 false
  br i1 %or.cond54, label %.split.split, label %_ZN32pxrInternal_v0_24__pxrReserved__L23_SolveCubic_RegulaFalsiEPKddRKNS_10GfIntervalE.exit, !llvm.loop !4

_ZN32pxrInternal_v0_24__pxrReserved__L23_SolveCubic_RegulaFalsiEPKddRKNS_10GfIntervalE.exit: ; preds = %_ZNK32pxrInternal_v0_24__pxrReserved__10GfInterval8ContainsEd.exit.thread21, %_ZNK32pxrInternal_v0_24__pxrReserved__10GfInterval8ContainsEd.exit.thread21.us39, %_ZNK32pxrInternal_v0_24__pxrReserved__10GfInterval8ContainsEd.exit.thread21.us, %93, %.preheader.i, %79, %76, %_ZNK32pxrInternal_v0_24__pxrReserved__10GfInterval8ContainsEd.exit.thread
  %.0 = phi double [ %5, %_ZNK32pxrInternal_v0_24__pxrReserved__10GfInterval8ContainsEd.exit.thread ], [ %7, %76 ], [ -1.000000e+00, %79 ], [ %86, %.preheader.i ], [ %86, %93 ], [ %35, %_ZNK32pxrInternal_v0_24__pxrReserved__10GfInterval8ContainsEd.exit.thread21.us ], [ %50, %_ZNK32pxrInternal_v0_24__pxrReserved__10GfInterval8ContainsEd.exit.thread21.us39 ], [ %63, %_ZNK32pxrInternal_v0_24__pxrReserved__10GfInterval8ContainsEd.exit.thread21 ]
  ret double %.0
}